; Function Attrs: mustprogress uwtable
define i64 @_ZNK2cv5MatOp4sizeERKNS_7MatExprE(ptr nocapture nonnull readnone align 8 %0, ptr noundef nonnull align 8 dereferenceable(352) %1) unnamed_addr #8 align 2 {
  %3 = getelementptr inbounds i8, ptr %1, i64 16
  %4 = tail call noundef zeroext i1 @_ZNK2cv3Mat5emptyEv(ptr noundef nonnull align 8 dereferenceable(96) %3)
  br i1 %4, label %5, label %8

5:                                                ; preds = %2
  %6 = getelementptr inbounds i8, ptr %1, i64 112
  %7 = tail call noundef zeroext i1 @_ZNK2cv3Mat5emptyEv(ptr noundef nonnull align 8 dereferenceable(96) %6)
  %. = select i1 %7, i64 176, i64 272
  br label %8

8:                                                ; preds = %5, %2
  %.sink = phi i64 [ 80, %2 ], [ %., %5 ]
  %9 = getelementptr inbounds i8, ptr %1, i64 %.sink
  %10 = load ptr, ptr %9, align 8
  %11 = getelementptr inbounds i8, ptr %10, i64 4
  %12 = load i32, ptr %11, align 4
  %13 = load i32, ptr %10, align 4
  %.sroa.2.0.insert.ext.i5 = zext i32 %13 to i64
  %.sroa.2.0.insert.shift.i6 = shl nuw i64 %.sroa.2.0.insert.ext.i5, 32
  %.sroa.0.0.insert.ext.i7 = zext i32 %12 to i64
  %.sroa.0.0.insert.insert.i8 = or disjoint i64 %.sroa.2.0.insert.shift.i6, %.sroa.0.0.insert.ext.i7
  ret i64 %.sroa.0.0.insert.insert.i8
}